target datalayout = "e-m:e-p270:32:32-p271:32:32-p272:64:64-i64:64-i128:128-f80:128-n8:16:32:64-S128"
target triple = "x86_64-pc-linux-gnu"

%struct._object = type { %union.anon, ptr }
%union.anon = type { i64 }
%struct.anon.0 = type { i32, i32 }

; Function Attrs: alwaysinline nounwind uwtable
define internal i32 @_Py_IsImmortal(ptr noundef %0) #3 {
  %2 = alloca ptr, align 8
  store ptr %0, ptr %2, align 8, !tbaa !9
  %3 = load ptr, ptr %2, align 8, !tbaa !9
  %4 = getelementptr inbounds nuw %struct._object, ptr %3, i32 0, i32 0
  %5 = getelementptr inbounds nuw %struct.anon.0, ptr %4, i32 0, i32 0
  %6 = load i32, ptr %5, align 8, !tbaa !36
  %7 = icmp slt i32 %6, 0
  %8 = zext i1 %7 to i32
  ret i32 %8
}

; Function Attrs: alwaysinline nounwind uwtable
define internal void @Py_DECREF(ptr noundef %0) #3 {
  %2 = alloca ptr, align 8
  store ptr %0, ptr %2, align 8, !tbaa !9
  %3 = load ptr, ptr %2, align 8, !tbaa !9
  %4 = call i32 @_Py_IsImmortal(ptr noundef %3)
  %5 = icmp ne i32 %4, 0
  br i1 %5, label %6, label %7

6:                                                ; preds = %1
  br label %16

7:                                                ; preds = %1
  %8 = load ptr, ptr %2, align 8, !tbaa !9
  %9 = getelementptr inbounds nuw %struct._object, ptr %8, i32 0, i32 0
  %10 = getelementptr inbounds nuw %struct.anon.0, ptr %9, i32 0, i32 0
  %11 = load i32, ptr %10, align 8, !tbaa !36
  %12 = add i32 %11, -1
  store i32 %12, ptr %10, align 8, !tbaa !36
  %13 = icmp eq i32 %12, 0
  br i1 %13, label %14, label %16

14:                                               ; preds = %7
  %15 = load ptr, ptr %2, align 8, !tbaa !9
  call void @_Py_Dealloc(ptr noundef %15)
  br label %16

16:                                               ; preds = %6, %14, %7
  ret void
}

; Function Attrs: nounwind uwtable
define dso_local void @_PyErr_SetString(ptr noundef %0, ptr noundef %1, ptr noundef %2) #0 {
  %4 = alloca ptr, align 8
  %5 = alloca ptr, align 8
  %6 = alloca ptr, align 8
  %7 = alloca ptr, align 8
  store ptr %0, ptr %4, align 8, !tbaa !4
  store ptr %1, ptr %5, align 8, !tbaa !9
  store ptr %2, ptr %6, align 8, !tbaa !38
  call void @llvm.lifetime.start.p0(i64 8, ptr %7) #13
  %8 = load ptr, ptr %6, align 8, !tbaa !38
  %9 = call ptr @PyUnicode_FromString(ptr noundef %8)
  store ptr %9, ptr %7, align 8, !tbaa !9
  %10 = load ptr, ptr %7, align 8, !tbaa !9
  %11 = icmp ne ptr %10, null
  br i1 %11, label %12, label %17

12:                                               ; preds = %3
  %13 = load ptr, ptr %4, align 8, !tbaa !4
  %14 = load ptr, ptr %5, align 8, !tbaa !9
  %15 = load ptr, ptr %7, align 8, !tbaa !9
  call void @_PyErr_SetObject(ptr noundef %13, ptr noundef %14, ptr noundef %15)
  %16 = load ptr, ptr %7, align 8, !tbaa !9
  call void @Py_DECREF(ptr noundef %16)
  br label %17

17:                                               ; preds = %12, %3
  call void @llvm.lifetime.end.p0(i64 8, ptr %7) #13
  ret void
}