; Function Attrs: nounwind uwtable
define dso_local void @_PyErr_SetString(ptr noundef captures(none) %0, ptr noundef %1, ptr noundef %2) local_unnamed_addr #0 {
  %4 = tail call ptr @PyUnicode_FromString(ptr noundef %2) #17
  %.not = icmp eq ptr %4, null
  br i1 %.not, label %Py_DECREF.exit, label %5

5:                                                ; preds = %3
  tail call void @_PyErr_SetObject(ptr noundef %0, ptr noundef %1, ptr noundef nonnull %4)
  %6 = load i32, ptr %4, align 8, !tbaa !20
  %.not.i = icmp sgt i32 %6, -1
  br i1 %.not.i, label %7, label %Py_DECREF.exit

7:                                                ; preds = %5
  %8 = add nsw i32 %6, -1
  store i32 %8, ptr %4, align 8, !tbaa !20
  %9 = icmp eq i32 %8, 0
  br i1 %9, label %10, label %Py_DECREF.exit

10:                                               ; preds = %7
  tail call void @_Py_Dealloc(ptr noundef nonnull %4) #17
  br label %Py_DECREF.exit

Py_DECREF.exit:                                   ; preds = %10, %7, %5, %3
  ret void
}